target datalayout = "e-m:e-p270:32:32-p271:32:32-p272:64:64-i64:64-i128:128-f80:128-n8:16:32:64-S128"
target triple = "x86_64-pc-linux-gnu"

%"class.icu_77::UnicodeString" = type { %"class.icu_77::Replaceable", %"union.icu_77::UnicodeString::StackBufferOrFields" }
%"class.icu_77::Replaceable" = type { %"class.icu_77::UObject" }
%"class.icu_77::UObject" = type { ptr }
%"union.icu_77::UnicodeString::StackBufferOrFields" = type { %struct.anon.0, [32 x i8] }
%struct.anon.0 = type { i16, i32, i32, ptr }
%"class.icu_77::RuleBasedNumberFormat" = type { %"class.icu_77::NumberFormat.base", ptr, ptr, i32, ptr, %"class.icu_77::Locale", ptr, ptr, ptr, ptr, i32, i8, ptr, ptr, %"class.icu_77::UnicodeString", i8, i8, i8, ptr }
%"class.icu_77::NumberFormat.base" = type <{ %"class.icu_77::Format", i8, [3 x i8], i32, i32, i32, i32, i8, i8, [4 x i16], [2 x i8], i32 }>
%"class.icu_77::Format" = type { %"class.icu_77::UObject", ptr, ptr }
%"class.icu_77::Locale" = type <{ %"class.icu_77::UObject", [12 x i8], [6 x i8], [4 x i8], [2 x i8], i32, [4 x i8], ptr, [157 x i8], [3 x i8], ptr, i8, [7 x i8] }>
%"class.icu_77::Formattable" = type { %"class.icu_77::UObject", %union.anon.2, ptr, ptr, i32, %"class.icu_77::UnicodeString" }
%union.anon.2 = type { %struct.anon.3 }
%struct.anon.3 = type { ptr, i32 }
%"class.icu_77::FieldPosition" = type <{ %"class.icu_77::UObject", i32, i32, i32, [4 x i8] }>

@_ZTVN6icu_777UObjectE = available_externally unnamed_addr constant { [5 x ptr] } { [5 x ptr] [ptr null, ptr @_ZTIN6icu_777UObjectE, ptr @_ZN6icu_777UObjectD1Ev, ptr @_ZN6icu_777UObjectD0Ev, ptr @_ZNK6icu_777UObject17getDynamicClassIDEv] }, align 8
@_ZTVN6icu_7713FieldPositionE = available_externally unnamed_addr constant { [5 x ptr] } { [5 x ptr] [ptr null, ptr @_ZTIN6icu_7713FieldPositionE, ptr @_ZN6icu_7713FieldPositionD1Ev, ptr @_ZN6icu_7713FieldPositionD0Ev, ptr @_ZNK6icu_7713FieldPosition17getDynamicClassIDEv] }, align 8

; Function Attrs: inlinehint mustprogress nounwind uwtable
define linkonce_odr noundef i32 @_ZNK6icu_7713UnicodeString14getShortLengthEv(ptr noundef nonnull align 8 dereferenceable(64) %0) #4 comdat align 2 {
  %2 = alloca ptr, align 8
  store ptr %0, ptr %2, align 8, !tbaa !76
  %3 = load ptr, ptr %2, align 8
  %4 = getelementptr inbounds nuw %"class.icu_77::UnicodeString", ptr %3, i32 0, i32 1
  %5 = getelementptr inbounds nuw %struct.anon.0, ptr %4, i32 0, i32 0
  %6 = load i16, ptr %5, align 8, !tbaa !39
  %7 = sext i16 %6 to i32
  %8 = ashr i32 %7, 5
  ret i32 %8
}

; Function Attrs: inlinehint mustprogress nounwind uwtable
define linkonce_odr noundef signext i8 @_ZNK6icu_7713UnicodeString14hasShortLengthEv(ptr noundef nonnull align 8 dereferenceable(64) %0) #4 comdat align 2 {
  %2 = alloca ptr, align 8
  store ptr %0, ptr %2, align 8, !tbaa !76
  %3 = load ptr, ptr %2, align 8
  %4 = getelementptr inbounds nuw %"class.icu_77::UnicodeString", ptr %3, i32 0, i32 1
  %5 = getelementptr inbounds nuw %struct.anon.0, ptr %4, i32 0, i32 0
  %6 = load i16, ptr %5, align 8, !tbaa !39
  %7 = sext i16 %6 to i32
  %8 = icmp sge i32 %7, 0
  %9 = zext i1 %8 to i8
  ret i8 %9
}

; Function Attrs: inlinehint mustprogress nounwind uwtable
define linkonce_odr void @_ZN6icu_777UObjectC2Ev(ptr noundef nonnull align 8 dereferenceable(8) %0) unnamed_addr #4 comdat align 2 {
  %2 = alloca ptr, align 8
  store ptr %0, ptr %2, align 8, !tbaa !225
  %3 = load ptr, ptr %2, align 8
  store ptr getelementptr inbounds inrange(-16, 24) ({ [5 x ptr] }, ptr @_ZTVN6icu_777UObjectE, i32 0, i32 0, i32 2), ptr %3, align 8, !tbaa !10
  ret void
}

; Function Attrs: inlinehint mustprogress uwtable
define linkonce_odr noundef i32 @_ZNK6icu_7713UnicodeString6lengthEv(ptr noundef nonnull align 8 dereferenceable(64) %0) #6 comdat align 2 {
  %2 = alloca ptr, align 8
  store ptr %0, ptr %2, align 8, !tbaa !76
  %3 = load ptr, ptr %2, align 8
  %4 = call noundef signext i8 @_ZNK6icu_7713UnicodeString14hasShortLengthEv(ptr noundef nonnull align 8 dereferenceable(64) %3)
  %5 = icmp ne i8 %4, 0
  br i1 %5, label %6, label %8

6:                                                ; preds = %1
  %7 = call noundef i32 @_ZNK6icu_7713UnicodeString14getShortLengthEv(ptr noundef nonnull align 8 dereferenceable(64) %3)
  br label %12

8:                                                ; preds = %1
  %9 = getelementptr inbounds nuw %"class.icu_77::UnicodeString", ptr %3, i32 0, i32 1
  %10 = getelementptr inbounds nuw %struct.anon.0, ptr %9, i32 0, i32 1
  %11 = load i32, ptr %10, align 4, !tbaa !39
  br label %12

12:                                               ; preds = %8, %6
  %13 = phi i32 [ %7, %6 ], [ %11, %8 ]
  ret i32 %13
}

; Function Attrs: mustprogress nounwind uwtable
define linkonce_odr void @_ZN6icu_7713FieldPositionC2Ei(ptr noundef nonnull align 8 dereferenceable(20) %0, i32 noundef %1) unnamed_addr #0 comdat align 2 {
  %3 = alloca ptr, align 8
  %4 = alloca i32, align 4
  store ptr %0, ptr %3, align 8, !tbaa !162
  store i32 %1, ptr %4, align 4, !tbaa !12
  %5 = load ptr, ptr %3, align 8
  %6 = getelementptr inbounds i8, ptr %5, i64 0
  call void @llvm.memset.p0.i64(ptr align 8 %6, i8 0, i64 8, i1 false)
  call void @_ZN6icu_777UObjectC2Ev(ptr noundef nonnull align 8 dereferenceable(8) %5) #14
  store ptr getelementptr inbounds inrange(-16, 24) ({ [5 x ptr] }, ptr @_ZTVN6icu_7713FieldPositionE, i32 0, i32 0, i32 2), ptr %5, align 8, !tbaa !10
  %7 = getelementptr inbounds nuw %"class.icu_77::FieldPosition", ptr %5, i32 0, i32 1
  %8 = load i32, ptr %4, align 4, !tbaa !12
  store i32 %8, ptr %7, align 8, !tbaa !181
  %9 = getelementptr inbounds nuw %"class.icu_77::FieldPosition", ptr %5, i32 0, i32 2
  store i32 0, ptr %9, align 4, !tbaa !183
  %10 = getelementptr inbounds nuw %"class.icu_77::FieldPosition", ptr %5, i32 0, i32 3
  store i32 0, ptr %10, align 8, !tbaa !184
  ret void
}

; Function Attrs: inlinehint mustprogress nounwind uwtable
define internal noundef signext i8 @_ZL9U_SUCCESS10UErrorCode(i32 noundef %0) #4 {
  %2 = alloca i32, align 4
  store i32 %0, ptr %2, align 4, !tbaa !28
  %3 = load i32, ptr %2, align 4, !tbaa !28
  %4 = icmp sle i32 %3, 0
  %5 = zext i1 %4 to i8
  ret i8 %5
}

; Function Attrs: mustprogress uwtable
define noundef nonnull align 8 dereferenceable(64) ptr @_ZNK6icu_7721RuleBasedNumberFormat6formatElPNS_9NFRuleSetERNS_13UnicodeStringER10UErrorCode(ptr noundef nonnull align 8 dereferenceable(456) %0, i64 noundef %1, ptr noundef %2, ptr noundef nonnull align 8 dereferenceable(64) %3, ptr noundef nonnull align 4 dereferenceable(4) %4) #2 align 2 personality ptr @__gxx_personality_v0 {
  %6 = alloca ptr, align 8
  %7 = alloca ptr, align 8
  %8 = alloca i64, align 8
  %9 = alloca ptr, align 8
  %10 = alloca ptr, align 8
  %11 = alloca ptr, align 8
  %12 = alloca ptr, align 8
  %13 = alloca i32, align 4
  %14 = alloca %"class.icu_77::Formattable", align 8
  %15 = alloca %"class.icu_77::FieldPosition", align 8
  %16 = alloca ptr, align 8
  %17 = alloca i32, align 4
  %18 = alloca ptr, align 8
  %19 = alloca ptr, align 8
  %20 = alloca i1, align 1
  %21 = alloca i32, align 4
  store ptr %0, ptr %7, align 8, !tbaa !3
  store i64 %1, ptr %8, align 8, !tbaa !62
  store ptr %2, ptr %9, align 8, !tbaa !121
  store ptr %3, ptr %10, align 8, !tbaa !76
  store ptr %4, ptr %11, align 8, !tbaa !51
  %22 = load ptr, ptr %7, align 8
  %23 = load ptr, ptr %11, align 8, !tbaa !51
  %24 = load i32, ptr %23, align 4, !tbaa !28
  %25 = call noundef signext i8 @_ZL9U_SUCCESS10UErrorCode(i32 noundef %24)
  %26 = icmp ne i8 %25, 0
  br i1 %26, label %27, label %116

27:                                               ; preds = %5
  %28 = load i64, ptr %8, align 8, !tbaa !62
  %29 = icmp eq i64 %28, -9223372036854775808
  br i1 %29, label %30, label %102

30:                                               ; preds = %27
  call void @llvm.lifetime.start.p0(i64 8, ptr %12) #14
  %31 = getelementptr inbounds nuw %"class.icu_77::RuleBasedNumberFormat", ptr %22, i32 0, i32 5
  %32 = load ptr, ptr %11, align 8, !tbaa !51
  %33 = call noundef ptr @_ZN6icu_7712NumberFormat14createInstanceERKNS_6LocaleE18UNumberFormatStyleR10UErrorCode(ptr noundef nonnull align 8 dereferenceable(217) %31, i32 noundef 1, ptr noundef nonnull align 4 dereferenceable(4) %32)
  store ptr %33, ptr %12, align 8, !tbaa !166
  %34 = load ptr, ptr %12, align 8, !tbaa !166
  %35 = icmp eq ptr %34, null
  br i1 %35, label %36, label %38

36:                                               ; preds = %30
  %37 = load ptr, ptr %10, align 8, !tbaa !76
  store ptr %37, ptr %6, align 8
  store i32 1, ptr %13, align 4
  br label %93

38:                                               ; preds = %30
  call void @llvm.lifetime.start.p0(i64 112, ptr %14) #14
  call void @_ZN6icu_7711FormattableC1Ev(ptr noundef nonnull align 8 dereferenceable(112) %14)
  call void @llvm.lifetime.start.p0(i64 24, ptr %15) #14
  invoke void @_ZN6icu_7713FieldPositionC2Ei(ptr noundef nonnull align 8 dereferenceable(20) %15, i32 noundef -1)
          to label %39 unwind label %58

39:                                               ; preds = %38
  call void @llvm.lifetime.start.p0(i64 8, ptr %18) #14
  %40 = call noundef ptr @_ZN6icu_777UMemorynwEm(i64 noundef 72) #14
  %41 = icmp eq ptr %40, null
  store i1 false, ptr %20, align 1
  br i1 %41, label %44, label %42

42:                                               ; preds = %39
  store ptr %40, ptr %19, align 8
  store i1 true, ptr %20, align 1
  invoke void @_ZN6icu_776number4impl15DecimalQuantityC1Ev(ptr noundef nonnull align 8 dereferenceable(66) %40)
          to label %43 unwind label %62

43:                                               ; preds = %42
  br label %44

44:                                               ; preds = %43, %39
  %45 = phi ptr [ %40, %43 ], [ null, %39 ]
  store ptr %45, ptr %18, align 8, !tbaa !160
  %46 = load ptr, ptr %18, align 8, !tbaa !160
  %47 = icmp eq ptr %46, null
  br i1 %47, label %48, label %70

48:                                               ; preds = %44
  %49 = load ptr, ptr %11, align 8, !tbaa !51
  store i32 7, ptr %49, align 4, !tbaa !28
  %50 = load ptr, ptr %12, align 8, !tbaa !166
  %51 = icmp eq ptr %50, null
  br i1 %51, label %56, label %52

52:                                               ; preds = %48
  %53 = load ptr, ptr %50, align 8, !tbaa !10
  %54 = getelementptr inbounds ptr, ptr %53, i64 1
  %55 = load ptr, ptr %54, align 8
  call void %55(ptr noundef nonnull align 8 dereferenceable(60) %50) #14
  br label %56

56:                                               ; preds = %52, %48
  %57 = load ptr, ptr %10, align 8, !tbaa !76
  store ptr %57, ptr %6, align 8
  store i32 1, ptr %13, align 4
  br label %92

58:                                               ; preds = %38
  %59 = landingpad { ptr, i32 }
          cleanup
  %60 = extractvalue { ptr, i32 } %59, 0
  store ptr %60, ptr %16, align 8
  %61 = extractvalue { ptr, i32 } %59, 1
  store i32 %61, ptr %17, align 4
  br label %101

62:                                               ; preds = %42
  %63 = landingpad { ptr, i32 }
          cleanup
  %64 = extractvalue { ptr, i32 } %63, 0
  store ptr %64, ptr %16, align 8
  %65 = extractvalue { ptr, i32 } %63, 1
  store i32 %65, ptr %17, align 4
  %66 = load i1, ptr %20, align 1
  br i1 %66, label %67, label %69

67:                                               ; preds = %62
  %68 = load ptr, ptr %19, align 8
  call void @_ZN6icu_777UMemorydlEPv(ptr noundef %68) #14
  br label %69

69:                                               ; preds = %67, %62
  br label %100

70:                                               ; preds = %44
  %71 = load ptr, ptr %18, align 8, !tbaa !160
  %72 = load i64, ptr %8, align 8, !tbaa !62
  %73 = invoke noundef nonnull align 8 dereferenceable(66) ptr @_ZN6icu_776number4impl15DecimalQuantity9setToLongEl(ptr noundef nonnull align 8 dereferenceable(66) %71, i64 noundef %72)
          to label %74 unwind label %96

74:                                               ; preds = %70
  %75 = load ptr, ptr %18, align 8, !tbaa !160
  invoke void @_ZN6icu_7711Formattable20adoptDecimalQuantityEPNS_6number4impl15DecimalQuantityE(ptr noundef nonnull align 8 dereferenceable(112) %14, ptr noundef %75)
          to label %76 unwind label %96

76:                                               ; preds = %74
  %77 = load ptr, ptr %12, align 8, !tbaa !166
  %78 = load ptr, ptr %10, align 8, !tbaa !76
  %79 = load ptr, ptr %11, align 8, !tbaa !51
  %80 = load ptr, ptr %77, align 8, !tbaa !10
  %81 = getelementptr inbounds ptr, ptr %80, i64 5
  %82 = load ptr, ptr %81, align 8
  %83 = invoke noundef nonnull align 8 dereferenceable(64) ptr %82(ptr noundef nonnull align 8 dereferenceable(60) %77, ptr noundef nonnull align 8 dereferenceable(112) %14, ptr noundef nonnull align 8 dereferenceable(64) %78, ptr noundef nonnull align 8 dereferenceable(20) %15, ptr noundef nonnull align 4 dereferenceable(4) %79)
          to label %84 unwind label %96

84:                                               ; preds = %76
  %85 = load ptr, ptr %12, align 8, !tbaa !166
  %86 = icmp eq ptr %85, null
  br i1 %86, label %91, label %87

87:                                               ; preds = %84
  %88 = load ptr, ptr %85, align 8, !tbaa !10
  %89 = getelementptr inbounds ptr, ptr %88, i64 1
  %90 = load ptr, ptr %89, align 8
  call void %90(ptr noundef nonnull align 8 dereferenceable(60) %85) #14
  br label %91

91:                                               ; preds = %87, %84
  store i32 0, ptr %13, align 4
  br label %92

92:                                               ; preds = %91, %56
  call void @llvm.lifetime.end.p0(i64 8, ptr %18) #14
  call void @_ZN6icu_7713FieldPositionD1Ev(ptr noundef nonnull align 8 dereferenceable(20) %15) #14
  call void @llvm.lifetime.end.p0(i64 24, ptr %15) #14
  call void @_ZN6icu_7711FormattableD1Ev(ptr noundef nonnull align 8 dereferenceable(112) %14) #14
  call void @llvm.lifetime.end.p0(i64 112, ptr %14) #14
  br label %93

93:                                               ; preds = %92, %36
  call void @llvm.lifetime.end.p0(i64 8, ptr %12) #14
  %94 = load i32, ptr %13, align 4
  switch i32 %94, label %125 [
    i32 0, label %95
    i32 1, label %118
  ]

95:                                               ; preds = %93
  br label %115

96:                                               ; preds = %76, %74, %70
  %97 = landingpad { ptr, i32 }
          cleanup
  %98 = extractvalue { ptr, i32 } %97, 0
  store ptr %98, ptr %16, align 8
  %99 = extractvalue { ptr, i32 } %97, 1
  store i32 %99, ptr %17, align 4
  br label %100

100:                                              ; preds = %96, %69
  call void @llvm.lifetime.end.p0(i64 8, ptr %18) #14
  call void @_ZN6icu_7713FieldPositionD1Ev(ptr noundef nonnull align 8 dereferenceable(20) %15) #14
  br label %101

101:                                              ; preds = %100, %58
  call void @llvm.lifetime.end.p0(i64 24, ptr %15) #14
  call void @_ZN6icu_7711FormattableD1Ev(ptr noundef nonnull align 8 dereferenceable(112) %14) #14
  call void @llvm.lifetime.end.p0(i64 112, ptr %14) #14
  call void @llvm.lifetime.end.p0(i64 8, ptr %12) #14
  br label %120

102:                                              ; preds = %27
  call void @llvm.lifetime.start.p0(i64 4, ptr %21) #14
  %103 = load ptr, ptr %10, align 8, !tbaa !76
  %104 = call noundef i32 @_ZNK6icu_7713UnicodeString6lengthEv(ptr noundef nonnull align 8 dereferenceable(64) %103)
  store i32 %104, ptr %21, align 4, !tbaa !12
  %105 = load ptr, ptr %9, align 8, !tbaa !121
  %106 = load i64, ptr %8, align 8, !tbaa !62
  %107 = load ptr, ptr %10, align 8, !tbaa !76
  %108 = load ptr, ptr %10, align 8, !tbaa !76
  %109 = call noundef i32 @_ZNK6icu_7713UnicodeString6lengthEv(ptr noundef nonnull align 8 dereferenceable(64) %108)
  %110 = load ptr, ptr %11, align 8, !tbaa !51
  call void @_ZNK6icu_779NFRuleSet6formatElRNS_13UnicodeStringEiiR10UErrorCode(ptr noundef nonnull align 8 dereferenceable(163) %105, i64 noundef %106, ptr noundef nonnull align 8 dereferenceable(64) %107, i32 noundef %109, i32 noundef 0, ptr noundef nonnull align 4 dereferenceable(4) %110)
  %111 = load i32, ptr %21, align 4, !tbaa !12
  %112 = load ptr, ptr %10, align 8, !tbaa !76
  %113 = load ptr, ptr %11, align 8, !tbaa !51
  %114 = call noundef nonnull align 8 dereferenceable(64) ptr @_ZNK6icu_7721RuleBasedNumberFormat30adjustForCapitalizationContextEiRNS_13UnicodeStringER10UErrorCode(ptr noundef nonnull align 8 dereferenceable(456) %22, i32 noundef %111, ptr noundef nonnull align 8 dereferenceable(64) %112, ptr noundef nonnull align 4 dereferenceable(4) %113)
  call void @llvm.lifetime.end.p0(i64 4, ptr %21) #14
  br label %115

115:                                              ; preds = %102, %95
  br label %116

116:                                              ; preds = %115, %5
  %117 = load ptr, ptr %10, align 8, !tbaa !76
  store ptr %117, ptr %6, align 8
  br label %118

118:                                              ; preds = %116, %93
  %119 = load ptr, ptr %6, align 8
  ret ptr %119

120:                                              ; preds = %101
  %121 = load ptr, ptr %16, align 8
  %122 = load i32, ptr %17, align 4
  %123 = insertvalue { ptr, i32 } poison, ptr %121, 0
  %124 = insertvalue { ptr, i32 } %123, i32 %122, 1
  resume { ptr, i32 } %124

125:                                              ; preds = %93
  unreachable
}