; Function Attrs: mustprogress uwtable
define noundef nonnull align 8 dereferenceable(64) ptr @_ZNK6icu_7721RuleBasedNumberFormat6formatElPNS_9NFRuleSetERNS_13UnicodeStringER10UErrorCode(ptr noundef nonnull align 8 dereferenceable(456) %0, i64 noundef %1, ptr noundef %2, ptr noundef nonnull returned align 8 dereferenceable(64) %3, ptr noundef nonnull align 4 dereferenceable(4) %4) local_unnamed_addr #3 align 2 personality ptr @__gxx_personality_v0 {
  %6 = alloca %"class.icu_77::Formattable", align 8
  %7 = alloca %"class.icu_77::FieldPosition", align 8
  %8 = load i32, ptr %4, align 4, !tbaa !19
  %9 = icmp sgt i32 %8, 0
  br i1 %9, label %51, label %10

10:                                               ; preds = %5
  %11 = icmp eq i64 %1, -9223372036854775808
  br i1 %11, label %12, label %41

12:                                               ; preds = %10
  %13 = getelementptr inbounds nuw i8, ptr %0, i64 96
  %14 = tail call noundef ptr @_ZN6icu_7712NumberFormat14createInstanceERKNS_6LocaleE18UNumberFormatStyleR10UErrorCode(ptr noundef nonnull align 8 dereferenceable(217) %13, i32 noundef 1, ptr noundef nonnull align 4 dereferenceable(4) %4)
  %15 = icmp eq ptr %14, null
  br i1 %15, label %51, label %16

16:                                               ; preds = %12
  call void @llvm.lifetime.start.p0(i64 112, ptr nonnull %6) #21
  call void @_ZN6icu_7711FormattableC1Ev(ptr noundef nonnull align 8 dereferenceable(112) %6)
  call void @llvm.lifetime.start.p0(i64 24, ptr nonnull %7) #21
  store ptr getelementptr inbounds nuw inrange(-16, 24) (i8, ptr @_ZTVN6icu_7713FieldPositionE, i64 16), ptr %7, align 8, !tbaa !3
  %17 = getelementptr inbounds nuw i8, ptr %7, i64 8
  store i32 -1, ptr %17, align 8, !tbaa !128
  %18 = getelementptr inbounds nuw i8, ptr %7, i64 12
  store i32 0, ptr %18, align 4, !tbaa !130
  %19 = getelementptr inbounds nuw i8, ptr %7, i64 16
  store i32 0, ptr %19, align 8, !tbaa !131
  %20 = call noundef ptr @_ZN6icu_777UMemorynwEm(i64 noundef 72) #21
  %21 = icmp eq ptr %20, null
  br i1 %21, label %23, label %22

22:                                               ; preds = %16
  invoke void @_ZN6icu_776number4impl15DecimalQuantityC1Ev(ptr noundef nonnull align 8 dereferenceable(66) %20)
          to label %26 unwind label %24

23:                                               ; preds = %16
  store i32 7, ptr %4, align 4, !tbaa !19
  br label %34

24:                                               ; preds = %22
  %25 = landingpad { ptr, i32 }
          cleanup
  call void @_ZN6icu_777UMemorydlEPv(ptr noundef nonnull %20) #21
  br label %40

26:                                               ; preds = %22
  %27 = invoke noundef nonnull align 8 dereferenceable(66) ptr @_ZN6icu_776number4impl15DecimalQuantity9setToLongEl(ptr noundef nonnull align 8 dereferenceable(66) %20, i64 noundef -9223372036854775808)
          to label %28 unwind label %38

28:                                               ; preds = %26
  invoke void @_ZN6icu_7711Formattable20adoptDecimalQuantityEPNS_6number4impl15DecimalQuantityE(ptr noundef nonnull align 8 dereferenceable(112) %6, ptr noundef nonnull %20)
          to label %29 unwind label %38

29:                                               ; preds = %28
  %30 = load ptr, ptr %14, align 8, !tbaa !3
  %31 = getelementptr inbounds nuw i8, ptr %30, i64 40
  %32 = load ptr, ptr %31, align 8
  %33 = invoke noundef nonnull align 8 dereferenceable(64) ptr %32(ptr noundef nonnull align 8 dereferenceable(60) %14, ptr noundef nonnull align 8 dereferenceable(112) %6, ptr noundef nonnull align 8 dereferenceable(64) %3, ptr noundef nonnull align 8 dereferenceable(20) %7, ptr noundef nonnull align 4 dereferenceable(4) %4)
          to label %34 unwind label %38

34:                                               ; preds = %29, %23
  %35 = load ptr, ptr %14, align 8, !tbaa !3
  %36 = getelementptr inbounds nuw i8, ptr %35, i64 8
  %37 = load ptr, ptr %36, align 8
  call void %37(ptr noundef nonnull align 8 dereferenceable(60) %14) #21
  call void @_ZN6icu_7713FieldPositionD1Ev(ptr noundef nonnull align 8 dereferenceable(20) %7) #21
  call void @llvm.lifetime.end.p0(i64 24, ptr nonnull %7) #21
  call void @_ZN6icu_7711FormattableD1Ev(ptr noundef nonnull align 8 dereferenceable(112) %6) #21
  call void @llvm.lifetime.end.p0(i64 112, ptr nonnull %6) #21
  br label %51

38:                                               ; preds = %29, %28, %26
  %39 = landingpad { ptr, i32 }
          cleanup
  br label %40

40:                                               ; preds = %24, %38
  %.pn = phi { ptr, i32 } [ %39, %38 ], [ %25, %24 ]
  call void @_ZN6icu_7713FieldPositionD1Ev(ptr noundef nonnull align 8 dereferenceable(20) %7) #21
  call void @llvm.lifetime.end.p0(i64 24, ptr nonnull %7) #21
  call void @_ZN6icu_7711FormattableD1Ev(ptr noundef nonnull align 8 dereferenceable(112) %6) #21
  call void @llvm.lifetime.end.p0(i64 112, ptr nonnull %6) #21
  resume { ptr, i32 } %.pn

41:                                               ; preds = %10
  %42 = getelementptr inbounds nuw i8, ptr %3, i64 8
  %43 = load i16, ptr %42, align 8, !tbaa !55
  %44 = icmp slt i16 %43, 0
  %45 = ashr i16 %43, 5
  %46 = sext i16 %45 to i32
  %47 = getelementptr inbounds nuw i8, ptr %3, i64 12
  %48 = load i32, ptr %47, align 4
  %49 = select i1 %44, i32 %48, i32 %46
  tail call void @_ZNK6icu_779NFRuleSet6formatElRNS_13UnicodeStringEiiR10UErrorCode(ptr noundef nonnull align 8 dereferenceable(163) %2, i64 noundef %1, ptr noundef nonnull align 8 dereferenceable(64) %3, i32 noundef %49, i32 noundef 0, ptr noundef nonnull align 4 dereferenceable(4) %4)
  %50 = tail call noundef nonnull align 8 dereferenceable(64) ptr @_ZNK6icu_7721RuleBasedNumberFormat30adjustForCapitalizationContextEiRNS_13UnicodeStringER10UErrorCode(ptr noundef nonnull align 8 dereferenceable(456) %0, i32 noundef %49, ptr noundef nonnull align 8 dereferenceable(64) %3, ptr noundef nonnull align 4 dereferenceable(4) %4)
  br label %51

51:                                               ; preds = %34, %12, %5, %41
  ret ptr %3
}